; Function Attrs: nounwind uwtable
define hidden noundef zeroext i1 @je_pa_shard_init(ptr noundef %0, ptr noundef %1, ptr noundef %2, ptr noundef %3, ptr noundef %4, i32 noundef %5, ptr noundef %6, ptr noundef %7, ptr noundef %8, i64 noundef %9, i64 noundef %10, i64 noundef %11) local_unnamed_addr #0 {
  %13 = getelementptr inbounds nuw i8, ptr %1, i64 68168
  %14 = tail call zeroext i1 @je_edata_cache_init(ptr noundef nonnull %13, ptr noundef %4) #4
  br i1 %14, label %28, label %15

15:                                               ; preds = %12
  %16 = getelementptr inbounds nuw i8, ptr %1, i64 24
  %17 = getelementptr inbounds nuw i8, ptr %6, i64 8
  %18 = tail call zeroext i1 @je_pac_init(ptr noundef %0, ptr noundef nonnull %16, ptr noundef %4, ptr noundef %3, ptr noundef nonnull %13, ptr noundef %8, i64 noundef %9, i64 noundef %10, i64 noundef %11, ptr noundef nonnull %17, ptr noundef %7) #4
  br i1 %18, label %28, label %19

19:                                               ; preds = %15
  %20 = getelementptr inbounds nuw i8, ptr %1, i64 68312
  store i32 %5, ptr %20, align 8, !tbaa !4
  %21 = getelementptr inbounds nuw i8, ptr %1, i64 17
  store i8 0, ptr %21, align 1, !tbaa !50
  %22 = getelementptr inbounds nuw i8, ptr %1, i64 16
  store atomic i8 0, ptr %22 monotonic, align 1
  %23 = getelementptr inbounds nuw i8, ptr %1, i64 8
  store atomic i64 0, ptr %23 monotonic, align 8
  %24 = getelementptr inbounds nuw i8, ptr %1, i64 68320
  store ptr %7, ptr %24, align 8, !tbaa !51
  %25 = getelementptr inbounds nuw i8, ptr %1, i64 68328
  store ptr %6, ptr %25, align 8, !tbaa !52
  tail call void @llvm.memset.p0.i64(ptr noundef nonnull align 8 dereferenceable(80) %6, i8 0, i64 80, i1 false)
  store ptr %2, ptr %1, align 8, !tbaa !53
  %26 = getelementptr inbounds nuw i8, ptr %1, i64 68336
  store ptr %3, ptr %26, align 8, !tbaa !54
  %27 = getelementptr inbounds nuw i8, ptr %1, i64 68344
  store ptr %4, ptr %27, align 8, !tbaa !55
  br label %28

28:                                               ; preds = %15, %12, %19
  %.0 = phi i1 [ false, %19 ], [ true, %12 ], [ true, %15 ]
  ret i1 %.0
}